; Function Attrs: nounwind uwtable
define internal fastcc void @llvm_gen_test_main(ptr noundef %0) unnamed_addr #0 {
  %2 = load ptr, ptr getelementptr inbounds (%struct.GlobalContext, ptr @global_context, i64 0, i32 26), align 8
  %.not = icmp eq ptr %2, null
  br i1 %.not, label %3, label %4

3:                                                ; preds = %1
  tail call void (ptr, ...) @error_exit(ptr noundef nonnull @.str.176) #12
  unreachable

4:                                                ; preds = %1
  store ptr %2, ptr getelementptr inbounds (%struct.GlobalContext, ptr @global_context, i64 0, i32 25), align 8
  %5 = load ptr, ptr @type_cint, align 8
  %6 = tail call ptr @llvm_get_type(ptr noundef %0, ptr noundef %5) #10
  %7 = tail call ptr @LLVMFunctionType(ptr noundef %6, ptr noundef null, i32 noundef 0, i32 noundef 1) #10
  %8 = getelementptr inbounds i8, ptr %0, i64 168
  %9 = load ptr, ptr %8, align 8
  %10 = tail call ptr @LLVMFunctionType(ptr noundef %9, ptr noundef null, i32 noundef 0, i32 noundef 1) #10
  %11 = getelementptr inbounds i8, ptr %0, i64 8
  %12 = load ptr, ptr %11, align 8
  %13 = load ptr, ptr @kw_main, align 8
  %14 = tail call ptr @LLVMAddFunction(ptr noundef %12, ptr noundef %13, ptr noundef %7) #10
  %15 = load ptr, ptr %11, align 8
  %16 = getelementptr inbounds i8, ptr %2, i64 8
  %17 = load ptr, ptr %16, align 8
  %18 = tail call ptr @LLVMAddFunction(ptr noundef %15, ptr noundef %17, ptr noundef %10) #10
  %19 = getelementptr inbounds i8, ptr %0, i64 40
  %20 = load ptr, ptr %19, align 8
  %21 = tail call ptr @LLVMAppendBasicBlockInContext(ptr noundef %20, ptr noundef %14, ptr noundef nonnull @.str.171) #10
  %22 = load ptr, ptr %19, align 8
  %23 = tail call ptr @LLVMCreateBuilderInContext(ptr noundef %22) #10
  %24 = load i32, ptr getelementptr inbounds (%struct.BuildTarget, ptr @active_target, i64 0, i32 67, i32 1), align 4
  tail call void @LLVMBuilderSetFastMathFlags(ptr noundef %23, i32 noundef %24) #10
  tail call void @LLVMPositionBuilderAtEnd(ptr noundef %23, ptr noundef %21) #10
  %25 = tail call ptr @LLVMBuildCall2(ptr noundef %23, ptr noundef %10, ptr noundef %18, ptr noundef null, i32 noundef 0, ptr noundef nonnull @.str.35) #10
  %26 = getelementptr inbounds i8, ptr %0, i64 160
  %27 = load ptr, ptr %26, align 8
  %28 = tail call ptr @LLVMBuildTrunc(ptr noundef %23, ptr noundef %25, ptr noundef %27, ptr noundef nonnull @.str.35) #10
  %29 = tail call ptr @LLVMConstNull(ptr noundef %6) #10
  %30 = tail call ptr @LLVMConstInt(ptr noundef %6, i64 noundef 1, i32 noundef 0) #10
  %31 = tail call ptr @LLVMBuildSelect(ptr noundef %23, ptr noundef %28, ptr noundef %29, ptr noundef %30, ptr noundef nonnull @.str.35) #10
  %32 = tail call ptr @LLVMBuildRet(ptr noundef %23, ptr noundef %31) #10
  tail call void @LLVMDisposeBuilder(ptr noundef %23) #10
  ret void
}